target datalayout = "e-m:e-p270:32:32-p271:32:32-p272:64:64-i64:64-i128:128-f80:128-n8:16:32:64-S128"
target triple = "x86_64-unknown-linux-gnu"

%"class.QuantLib::SeedGenerator" = type { %"class.QuantLib::MersenneTwisterUniformRng" }
%"class.QuantLib::MersenneTwisterUniformRng" = type { [624 x i64], i64 }

; Function Attrs: mustprogress uwtable
define linkonce_odr noundef i64 @_ZNK8QuantLib25MersenneTwisterUniformRng9nextInt32Ev(ptr noundef nonnull align 8 dereferenceable(5000) %this) #0 comdat align 2 {
entry:
  %this.addr = alloca ptr, align 8
  %y = alloca i64, align 8
  store ptr %this, ptr %this.addr, align 8, !tbaa !3
  %this1 = load ptr, ptr %this.addr, align 8
  %mti = getelementptr inbounds nuw %"class.QuantLib::MersenneTwisterUniformRng", ptr %this1, i32 0, i32 1
  %0 = load i64, ptr %mti, align 8, !tbaa !13
  %cmp = icmp eq i64 %0, 624
  br i1 %cmp, label %if.then, label %if.end

if.then:                                          ; preds = %entry
  call void @_ZNK8QuantLib25MersenneTwisterUniformRng5twistEv(ptr noundef nonnull align 8 dereferenceable(5000) %this1)
  br label %if.end

if.end:                                           ; preds = %if.then, %entry
  call void @llvm.lifetime.start.p0(i64 8, ptr %y) #13
  %mt = getelementptr inbounds nuw %"class.QuantLib::MersenneTwisterUniformRng", ptr %this1, i32 0, i32 0
  %mti2 = getelementptr inbounds nuw %"class.QuantLib::MersenneTwisterUniformRng", ptr %this1, i32 0, i32 1
  %1 = load i64, ptr %mti2, align 8, !tbaa !13
  %inc = add i64 %1, 1
  store i64 %inc, ptr %mti2, align 8, !tbaa !13
  %arrayidx = getelementptr inbounds nuw [624 x i64], ptr %mt, i64 0, i64 %1
  %2 = load i64, ptr %arrayidx, align 8, !tbaa !7
  store i64 %2, ptr %y, align 8, !tbaa !7
  %3 = load i64, ptr %y, align 8, !tbaa !7
  %shr = lshr i64 %3, 11
  %4 = load i64, ptr %y, align 8, !tbaa !7
  %xor = xor i64 %4, %shr
  store i64 %xor, ptr %y, align 8, !tbaa !7
  %5 = load i64, ptr %y, align 8, !tbaa !7
  %shl = shl i64 %5, 7
  %and = and i64 %shl, 2636928640
  %6 = load i64, ptr %y, align 8, !tbaa !7
  %xor3 = xor i64 %6, %and
  store i64 %xor3, ptr %y, align 8, !tbaa !7
  %7 = load i64, ptr %y, align 8, !tbaa !7
  %shl4 = shl i64 %7, 15
  %and5 = and i64 %shl4, 4022730752
  %8 = load i64, ptr %y, align 8, !tbaa !7
  %xor6 = xor i64 %8, %and5
  store i64 %xor6, ptr %y, align 8, !tbaa !7
  %9 = load i64, ptr %y, align 8, !tbaa !7
  %shr7 = lshr i64 %9, 18
  %10 = load i64, ptr %y, align 8, !tbaa !7
  %xor8 = xor i64 %10, %shr7
  store i64 %xor8, ptr %y, align 8, !tbaa !7
  %11 = load i64, ptr %y, align 8, !tbaa !7
  call void @llvm.lifetime.end.p0(i64 8, ptr %y) #13
  ret i64 %11
}

; Function Attrs: mustprogress uwtable
define noundef i64 @_ZN8QuantLib13SeedGenerator3getEv(ptr noundef nonnull align 8 dereferenceable(5000) %this) #0 align 2 {
entry:
  %this.addr = alloca ptr, align 8
  store ptr %this, ptr %this.addr, align 8, !tbaa !3
  %this1 = load ptr, ptr %this.addr, align 8
  %rng_ = getelementptr inbounds nuw %"class.QuantLib::SeedGenerator", ptr %this1, i32 0, i32 0
  %call = call noundef i64 @_ZNK8QuantLib25MersenneTwisterUniformRng9nextInt32Ev(ptr noundef nonnull align 8 dereferenceable(5000) %rng_)
  ret i64 %call
}