; Function Attrs: mustprogress uwtable
define noundef i64 @_ZN8QuantLib13SeedGenerator3getEv(ptr noundef nonnull align 8 dereferenceable(5000) %this) local_unnamed_addr #0 align 2 {
entry:
  %mti.i = getelementptr inbounds nuw i8, ptr %this, i64 4992
  %0 = load i64, ptr %mti.i, align 8, !tbaa !3
  %cmp.i = icmp eq i64 %0, 624
  br i1 %cmp.i, label %if.then.i, label %_ZNK8QuantLib25MersenneTwisterUniformRng9nextInt32Ev.exit

if.then.i:                                        ; preds = %entry
  tail call void @_ZNK8QuantLib25MersenneTwisterUniformRng5twistEv(ptr noundef nonnull align 8 dereferenceable(5000) %this)
  %.pre.i = load i64, ptr %mti.i, align 8, !tbaa !3
  br label %_ZNK8QuantLib25MersenneTwisterUniformRng9nextInt32Ev.exit

_ZNK8QuantLib25MersenneTwisterUniformRng9nextInt32Ev.exit: ; preds = %entry, %if.then.i
  %1 = phi i64 [ %.pre.i, %if.then.i ], [ %0, %entry ]
  %inc.i = add i64 %1, 1
  store i64 %inc.i, ptr %mti.i, align 8, !tbaa !3
  %arrayidx.i = getelementptr inbounds nuw [624 x i64], ptr %this, i64 0, i64 %1
  %2 = load i64, ptr %arrayidx.i, align 8, !tbaa !8
  %shr.i = lshr i64 %2, 11
  %xor.i = xor i64 %shr.i, %2
  %shl.i = shl i64 %xor.i, 7
  %and.i = and i64 %shl.i, 2636928640
  %xor3.i = xor i64 %and.i, %xor.i
  %shl4.i = shl i64 %xor3.i, 15
  %and5.i = and i64 %shl4.i, 4022730752
  %xor6.i = xor i64 %and5.i, %xor3.i
  %shr7.i = lshr i64 %xor6.i, 18
  %xor8.i = xor i64 %shr7.i, %xor6.i
  ret i64 %xor8.i
}